target datalayout = "e-m:e-p270:32:32-p271:32:32-p272:64:64-i64:64-i128:128-f80:128-n8:16:32:64-S128"
target triple = "x86_64-pc-linux-gnu"

%struct._GSList = type { ptr, ptr }
%struct.dissector_delete_item = type { ptr, i32, %union.anon }
%union.anon = type { ptr }

@.str = private unnamed_addr constant [1 x i8] zeroinitializer, align 1
@.str.7 = private unnamed_addr constant [17 x i8] c"epan/decode_as.c\00", align 1
@.str.8 = private unnamed_addr constant [31 x i8] c"assertion \22not reached\22 failed\00", align 1
@dissector_reset_list = internal global ptr null, align 8
@__func__.decode_clear_all = private unnamed_addr constant [17 x i8] c"decode_clear_all\00", align 1

; Function Attrs: null_pointer_is_valid sspstrong uwtable
define void @decode_clear_all() #0 {
  %1 = alloca ptr, align 8
  %2 = alloca ptr, align 8
  call void @llvm.lifetime.start.p0(i64 8, ptr %1) #15
  call void @llvm.lifetime.start.p0(i64 8, ptr %2) #15
  call void @dissector_all_tables_foreach_changed(ptr noundef @decode_build_reset_list, ptr noundef null)
  %3 = load ptr, ptr @dissector_reset_list, align 8
  store ptr %3, ptr %2, align 8
  br label %4

4:                                                ; preds = %49, %0
  %5 = load ptr, ptr %2, align 8
  %6 = icmp ne ptr %5, null
  br i1 %6, label %7, label %51

7:                                                ; preds = %4
  %8 = load ptr, ptr %2, align 8
  %9 = getelementptr inbounds nuw %struct._GSList, ptr %8, i32 0, i32 0
  %10 = load ptr, ptr %9, align 8
  store ptr %10, ptr %1, align 8
  %11 = load ptr, ptr %1, align 8
  %12 = getelementptr inbounds nuw %struct.dissector_delete_item, ptr %11, i32 0, i32 1
  %13 = load i32, ptr %12, align 8
  switch i32 %13, label %35 [
    i32 4, label %14
    i32 5, label %14
    i32 6, label %14
    i32 7, label %14
    i32 0, label %21
    i32 26, label %25
    i32 27, label %25
    i32 28, label %25
    i32 43, label %25
    i32 45, label %25
  ]

14:                                               ; preds = %7, %7, %7, %7
  %15 = load ptr, ptr %1, align 8
  %16 = getelementptr inbounds nuw %struct.dissector_delete_item, ptr %15, i32 0, i32 0
  %17 = load ptr, ptr %16, align 8
  %18 = load ptr, ptr %1, align 8
  %19 = getelementptr inbounds nuw %struct.dissector_delete_item, ptr %18, i32 0, i32 2
  %20 = load i32, ptr %19, align 8
  call void @dissector_reset_uint(ptr noundef %17, i32 noundef %20)
  br label %36

21:                                               ; preds = %7
  %22 = load ptr, ptr %1, align 8
  %23 = getelementptr inbounds nuw %struct.dissector_delete_item, ptr %22, i32 0, i32 0
  %24 = load ptr, ptr %23, align 8
  call void @dissector_reset_payload(ptr noundef %24)
  br label %36

25:                                               ; preds = %7, %7, %7, %7, %7
  %26 = load ptr, ptr %1, align 8
  %27 = getelementptr inbounds nuw %struct.dissector_delete_item, ptr %26, i32 0, i32 0
  %28 = load ptr, ptr %27, align 8
  %29 = load ptr, ptr %1, align 8
  %30 = getelementptr inbounds nuw %struct.dissector_delete_item, ptr %29, i32 0, i32 2
  %31 = load ptr, ptr %30, align 8
  call void @dissector_reset_string(ptr noundef %28, ptr noundef %31)
  %32 = load ptr, ptr %1, align 8
  %33 = getelementptr inbounds nuw %struct.dissector_delete_item, ptr %32, i32 0, i32 2
  %34 = load ptr, ptr %33, align 8
  call void @g_free(ptr noundef %34)
  br label %36

35:                                               ; preds = %7
  call void (ptr, i32, ptr, i64, ptr, ptr, ...) @ws_log_fatal_full(ptr noundef @.str, i32 noundef 7, ptr noundef @.str.7, i64 noundef 525, ptr noundef @__func__.decode_clear_all, ptr noundef @.str.8) #17
  unreachable

36:                                               ; preds = %25, %21, %14
  %37 = load ptr, ptr %1, align 8
  %38 = getelementptr inbounds nuw %struct.dissector_delete_item, ptr %37, i32 0, i32 0
  %39 = load ptr, ptr %38, align 8
  call void @g_free(ptr noundef %39)
  %40 = load ptr, ptr %1, align 8
  call void @g_free(ptr noundef %40)
  br label %41

41:                                               ; preds = %36
  %42 = load ptr, ptr %2, align 8
  %43 = icmp ne ptr %42, null
  br i1 %43, label %44, label %48

44:                                               ; preds = %41
  %45 = load ptr, ptr %2, align 8
  %46 = getelementptr inbounds nuw %struct._GSList, ptr %45, i32 0, i32 1
  %47 = load ptr, ptr %46, align 8
  br label %49

48:                                               ; preds = %41
  br label %49

49:                                               ; preds = %48, %44
  %50 = phi ptr [ %47, %44 ], [ null, %48 ]
  store ptr %50, ptr %2, align 8
  br label %4, !llvm.loop !6

51:                                               ; preds = %4
  %52 = load ptr, ptr @dissector_reset_list, align 8
  call void @g_slist_free(ptr noundef %52)
  store ptr null, ptr @dissector_reset_list, align 8
  call void @decode_dcerpc_reset_all()
  call void @llvm.lifetime.end.p0(i64 8, ptr %2) #15
  call void @llvm.lifetime.end.p0(i64 8, ptr %1) #15
  ret void
}