; Function Attrs: null_pointer_is_valid sspstrong uwtable
define void @decode_clear_all() local_unnamed_addr #0 {
  tail call void @dissector_all_tables_foreach_changed(ptr noundef nonnull @decode_build_reset_list, ptr noundef null)
  %.013 = load ptr, ptr @dissector_reset_list, align 8
  %.not14 = icmp eq ptr %.013, null
  br i1 %.not14, label %._crit_edge, label %.lr.ph

.lr.ph:                                           ; preds = %0, %16
  %.015 = phi ptr [ %.0, %16 ], [ %.013, %0 ]
  %1 = load ptr, ptr %.015, align 8
  %2 = getelementptr inbounds nuw i8, ptr %1, i64 8
  %3 = load i32, ptr %2, align 8
  switch i32 %3, label %15 [
    i32 4, label %4
    i32 5, label %4
    i32 6, label %4
    i32 7, label %4
    i32 0, label %8
    i32 26, label %10
    i32 27, label %10
    i32 28, label %10
    i32 43, label %10
    i32 45, label %10
  ]

4:                                                ; preds = %.lr.ph, %.lr.ph, %.lr.ph, %.lr.ph
  %5 = load ptr, ptr %1, align 8
  %6 = getelementptr inbounds nuw i8, ptr %1, i64 16
  %7 = load i32, ptr %6, align 8
  tail call void @dissector_reset_uint(ptr noundef %5, i32 noundef %7)
  br label %16

8:                                                ; preds = %.lr.ph
  %9 = load ptr, ptr %1, align 8
  tail call void @dissector_reset_payload(ptr noundef %9)
  br label %16

10:                                               ; preds = %.lr.ph, %.lr.ph, %.lr.ph, %.lr.ph, %.lr.ph
  %11 = load ptr, ptr %1, align 8
  %12 = getelementptr inbounds nuw i8, ptr %1, i64 16
  %13 = load ptr, ptr %12, align 8
  tail call void @dissector_reset_string(ptr noundef %11, ptr noundef %13)
  %14 = load ptr, ptr %12, align 8
  tail call void @g_free(ptr noundef %14)
  br label %16

15:                                               ; preds = %.lr.ph
  tail call void (ptr, i32, ptr, i64, ptr, ptr, ...) @ws_log_fatal_full(ptr noundef nonnull @.str, i32 noundef 7, ptr noundef nonnull @.str.7, i64 noundef 525, ptr noundef nonnull @__func__.decode_clear_all, ptr noundef nonnull @.str.8) #16
  unreachable

16:                                               ; preds = %10, %8, %4
  %17 = load ptr, ptr %1, align 8
  tail call void @g_free(ptr noundef %17)
  tail call void @g_free(ptr noundef %1)
  %18 = getelementptr inbounds nuw i8, ptr %.015, i64 8
  %.0 = load ptr, ptr %18, align 8
  %.not = icmp eq ptr %.0, null
  br i1 %.not, label %._crit_edge.loopexit, label %.lr.ph, !llvm.loop !6

._crit_edge.loopexit:                             ; preds = %16
  %.pre = load ptr, ptr @dissector_reset_list, align 8
  br label %._crit_edge

._crit_edge:                                      ; preds = %._crit_edge.loopexit, %0
  %19 = phi ptr [ %.pre, %._crit_edge.loopexit ], [ null, %0 ]
  tail call void @g_slist_free(ptr noundef %19)
  store ptr null, ptr @dissector_reset_list, align 8
  tail call void @decode_dcerpc_reset_all()
  ret void
}